; ModuleID = '57/2397.c'
source_filename = "57/2397.c"
target datalayout = "e-m:e-p270:32:32-p271:32:32-p272:64:64-i64:64-f80:128-n8:16:32:64-S128"
target triple = "x86_64-pc-linux-gnu"

@.str = private unnamed_addr constant [4 x i8] c"%d\0A\00", align 1
@.str.1 = private unnamed_addr constant [4 x i8] c"%s\0A\00", align 1

; Function Attrs: noinline nounwind uwtable
define dso_local void @main() #0 {
  %1 = alloca i32, align 4
  %2 = alloca i32, align 4
  %3 = alloca i32, align 4
  %4 = alloca i32, align 4
  %5 = alloca i8, align 1
  %6 = alloca i8*, align 8
  %7 = alloca i64, align 8
  %8 = alloca i64, align 8
  %9 = call i32 (i8*, ...) @__isoc99_scanf(i8* getelementptr inbounds ([4 x i8], [4 x i8]* @.str, i64 0, i64 0), i32* %1)
  %10 = load i32, i32* %1, align 4
  %11 = zext i32 %10 to i64
  %12 = call i8* @llvm.stacksave()
  store i8* %12, i8** %6, align 8
  %13 = alloca [32 x i8], i64 %11, align 16
  store i64 %11, i64* %7, align 8
  %14 = load i32, i32* %1, align 4
  %15 = zext i32 %14 to i64
  %16 = alloca i32, i64 %15, align 16
  store i64 %15, i64* %8, align 8
  store i32 0, i32* %3, align 4
  br label %17

17:                                               ; preds = %24, %0
  %18 = load i32, i32* %3, align 4
  %19 = icmp sle i32 %18, 32
  br i1 %19, label %20, label %27

20:                                               ; preds = %17
  %21 = load i32, i32* %3, align 4
  %22 = sext i32 %21 to i64
  %23 = getelementptr inbounds i32, i32* %16, i64 %22
  store i32 0, i32* %23, align 4
  br label %24

24:                                               ; preds = %20
  %25 = load i32, i32* %3, align 4
  %26 = add nsw i32 %25, 1
  store i32 %26, i32* %3, align 4
  br label %17

27:                                               ; preds = %17
  store i32 0, i32* %3, align 4
  br label %28

28:                                               ; preds = %56, %27
  %29 = load i32, i32* %3, align 4
  %30 = load i32, i32* %1, align 4
  %31 = icmp slt i32 %29, %30
  br i1 %31, label %32, label %59

32:                                               ; preds = %28
  store i32 0, i32* %4, align 4
  br label %33

33:                                               ; preds = %38, %32
  %34 = call i32 @getchar()
  %35 = trunc i32 %34 to i8
  store i8 %35, i8* %5, align 1
  %36 = sext i8 %35 to i32
  %37 = icmp ne i32 %36, 10
  br i1 %37, label %38, label %55

38:                                               ; preds = %33
  %39 = load i8, i8* %5, align 1
  %40 = load i32, i32* %3, align 4
  %41 = sext i32 %40 to i64
  %42 = getelementptr inbounds [32 x i8], [32 x i8]* %13, i64 %41
  %43 = load i32, i32* %4, align 4
  %44 = add nsw i32 %43, 1
  store i32 %44, i32* %4, align 4
  %45 = sext i32 %43 to i64
  %46 = getelementptr inbounds [32 x i8], [32 x i8]* %42, i64 0, i64 %45
  store i8 %39, i8* %46, align 1
  %47 = load i32, i32* %3, align 4
  %48 = sext i32 %47 to i64
  %49 = getelementptr inbounds i32, i32* %16, i64 %48
  %50 = load i32, i32* %49, align 4
  %51 = add nsw i32 %50, 1
  %52 = load i32, i32* %3, align 4
  %53 = sext i32 %52 to i64
  %54 = getelementptr inbounds i32, i32* %16, i64 %53
  store i32 %51, i32* %54, align 4
  br label %33

55:                                               ; preds = %33
  br label %56

56:                                               ; preds = %55
  %57 = load i32, i32* %3, align 4
  %58 = add nsw i32 %57, 1
  store i32 %58, i32* %3, align 4
  br label %28

59:                                               ; preds = %28
  store i32 0, i32* %3, align 4
  br label %60

60:                                               ; preds = %111, %59
  %61 = load i32, i32* %3, align 4
  %62 = load i32, i32* %1, align 4
  %63 = icmp slt i32 %61, %62
  br i1 %63, label %64, label %114

64:                                               ; preds = %60
  %65 = load i32, i32* %3, align 4
  %66 = sext i32 %65 to i64
  %67 = getelementptr inbounds [32 x i8], [32 x i8]* %13, i64 %66
  %68 = load i32, i32* %3, align 4
  %69 = sext i32 %68 to i64
  %70 = getelementptr inbounds i32, i32* %16, i64 %69
  %71 = load i32, i32* %70, align 4
  %72 = sub nsw i32 %71, 1
  %73 = sext i32 %72 to i64
  %74 = getelementptr inbounds [32 x i8], [32 x i8]* %67, i64 0, i64 %73
  %75 = load i8, i8* %74, align 1
  %76 = sext i8 %75 to i32
  %77 = icmp eq i32 %76, 103
  br i1 %77, label %78, label %94

78:                                               ; preds = %64
  %79 = load i32, i32* %3, align 4
  %80 = sext i32 %79 to i64
  %81 = getelementptr inbounds [32 x i8], [32 x i8]* %13, i64 %80
  %82 = load i32, i32* %3, align 4
  %83 = sext i32 %82 to i64
  %84 = getelementptr inbounds i32, i32* %16, i64 %83
  %85 = load i32, i32* %84, align 4
  %86 = sub nsw i32 %85, 3
  %87 = sext i32 %86 to i64
  %88 = getelementptr inbounds [32 x i8], [32 x i8]* %81, i64 0, i64 %87
  store i8 0, i8* %88, align 1
  %89 = load i32, i32* %3, align 4
  %90 = sext i32 %89 to i64
  %91 = getelementptr inbounds [32 x i8], [32 x i8]* %13, i64 %90
  %92 = getelementptr inbounds [32 x i8], [32 x i8]* %91, i64 0, i64 0
  %93 = call i32 (i8*, ...) @printf(i8* getelementptr inbounds ([4 x i8], [4 x i8]* @.str.1, i64 0, i64 0), i8* %92)
  br label %110

94:                                               ; preds = %64
  %95 = load i32, i32* %3, align 4
  %96 = sext i32 %95 to i64
  %97 = getelementptr inbounds [32 x i8], [32 x i8]* %13, i64 %96
  %98 = load i32, i32* %3, align 4
  %99 = sext i32 %98 to i64
  %100 = getelementptr inbounds i32, i32* %16, i64 %99
  %101 = load i32, i32* %100, align 4
  %102 = sub nsw i32 %101, 2
  %103 = sext i32 %102 to i64
  %104 = getelementptr inbounds [32 x i8], [32 x i8]* %97, i64 0, i64 %103
  store i8 0, i8* %104, align 1
  %105 = load i32, i32* %3, align 4
  %106 = sext i32 %105 to i64
  %107 = getelementptr inbounds [32 x i8], [32 x i8]* %13, i64 %106
  %108 = getelementptr inbounds [32 x i8], [32 x i8]* %107, i64 0, i64 0
  %109 = call i32 (i8*, ...) @printf(i8* getelementptr inbounds ([4 x i8], [4 x i8]* @.str.1, i64 0, i64 0), i8* %108)
  br label %110

110:                                              ; preds = %94, %78
  br label %111

111:                                              ; preds = %110
  %112 = load i32, i32* %3, align 4
  %113 = add nsw i32 %112, 1
  store i32 %113, i32* %3, align 4
  br label %60

114:                                              ; preds = %60
  %115 = load i8*, i8** %6, align 8
  call void @llvm.stackrestore(i8* %115)
  ret void
}

declare dso_local i32 @__isoc99_scanf(i8*, ...) #1

; Function Attrs: nounwind
declare i8* @llvm.stacksave() #2

declare dso_local i32 @getchar() #1

declare dso_local i32 @printf(i8*, ...) #1

; Function Attrs: nounwind
declare void @llvm.stackrestore(i8*) #2


!llvm.module.flags = !{!0}
!llvm.ident = !{!1}

!0 = !{i32 1, !"wchar_size", i32 4}
!1 = !{!"clang version 10.0.0-4ubuntu1 "}
